target datalayout = "e-m:e-p270:32:32-p271:32:32-p272:64:64-i64:64-i128:128-f80:128-n8:16:32:64-S128"
target triple = "x86_64-pc-linux-gnu"

%struct.b2Rot = type { float, float }

; Function Attrs: inlinehint nounwind uwtable
define internal zeroext i1 @b2IsNormalized(<2 x float> %0) #3 {
  %2 = alloca %struct.b2Rot, align 4
  %3 = alloca float, align 4
  store <2 x float> %0, ptr %2, align 4
  call void @llvm.lifetime.start.p0(i64 4, ptr %3) #8
  %4 = getelementptr inbounds nuw %struct.b2Rot, ptr %2, i32 0, i32 1
  %5 = load float, ptr %4, align 4, !tbaa !10
  %6 = getelementptr inbounds nuw %struct.b2Rot, ptr %2, i32 0, i32 1
  %7 = load float, ptr %6, align 4, !tbaa !10
  %8 = fmul float %5, %7
  %9 = getelementptr inbounds nuw %struct.b2Rot, ptr %2, i32 0, i32 0
  %10 = load float, ptr %9, align 4, !tbaa !12
  %11 = getelementptr inbounds nuw %struct.b2Rot, ptr %2, i32 0, i32 0
  %12 = load float, ptr %11, align 4, !tbaa !12
  %13 = fmul float %10, %12
  %14 = fadd float %8, %13
  store float %14, ptr %3, align 4, !tbaa !3
  %15 = load float, ptr %3, align 4, !tbaa !3
  %16 = fcmp olt float 0x3FEFFB15C0000000, %15
  br i1 %16, label %17, label %20

17:                                               ; preds = %1
  %18 = load float, ptr %3, align 4, !tbaa !3
  %19 = fcmp olt float %18, 0x3FF0027520000000
  br label %20

20:                                               ; preds = %17, %1
  %21 = phi i1 [ false, %1 ], [ %19, %17 ]
  call void @llvm.lifetime.end.p0(i64 4, ptr %3) #8
  ret i1 %21
}

; Function Attrs: nounwind uwtable
define zeroext i1 @b2IsValidRotation(<2 x float> %0) #2 {
  %2 = alloca i1, align 1
  %3 = alloca %struct.b2Rot, align 4
  store <2 x float> %0, ptr %3, align 4
  %4 = getelementptr inbounds nuw %struct.b2Rot, ptr %3, i32 0, i32 1
  %5 = load float, ptr %4, align 4, !tbaa !10
  %6 = call i1 @llvm.is.fpclass.f32(float %5, i32 3)
  br i1 %6, label %11, label %7

7:                                                ; preds = %1
  %8 = getelementptr inbounds nuw %struct.b2Rot, ptr %3, i32 0, i32 0
  %9 = load float, ptr %8, align 4, !tbaa !12
  %10 = call i1 @llvm.is.fpclass.f32(float %9, i32 3)
  br i1 %10, label %11, label %12

11:                                               ; preds = %7, %1
  store i1 false, ptr %2, align 1
  br label %36

12:                                               ; preds = %7
  %13 = getelementptr inbounds nuw %struct.b2Rot, ptr %3, i32 0, i32 1
  %14 = load float, ptr %13, align 4, !tbaa !10
  %15 = call float @llvm.fabs.f32(float %14) #7
  %16 = fcmp oeq float %15, 0x7FF0000000000000
  %17 = bitcast float %14 to i32
  %18 = icmp slt i32 %17, 0
  %19 = select i1 %18, i32 -1, i32 1
  %20 = select i1 %16, i32 %19, i32 0
  %21 = icmp ne i32 %20, 0
  br i1 %21, label %32, label %22

22:                                               ; preds = %12
  %23 = getelementptr inbounds nuw %struct.b2Rot, ptr %3, i32 0, i32 0
  %24 = load float, ptr %23, align 4, !tbaa !12
  %25 = call float @llvm.fabs.f32(float %24) #7
  %26 = fcmp oeq float %25, 0x7FF0000000000000
  %27 = bitcast float %24 to i32
  %28 = icmp slt i32 %27, 0
  %29 = select i1 %28, i32 -1, i32 1
  %30 = select i1 %26, i32 %29, i32 0
  %31 = icmp ne i32 %30, 0
  br i1 %31, label %32, label %33

32:                                               ; preds = %22, %12
  store i1 false, ptr %2, align 1
  br label %36

33:                                               ; preds = %22
  %34 = load <2 x float>, ptr %3, align 4
  %35 = call zeroext i1 @b2IsNormalized(<2 x float> %34)
  store i1 %35, ptr %2, align 1
  br label %36

36:                                               ; preds = %33, %32, %11
  %37 = load i1, ptr %2, align 1
  ret i1 %37
}