; Function Attrs: mustprogress nofree norecurse nosync nounwind willreturn memory(none) uwtable
define zeroext i1 @b2IsValidRotation(<2 x float> %0) local_unnamed_addr #2 {
  %.sroa.0.4.vec.extract = extractelement <2 x float> %0, i64 1
  %2 = fcmp uno float %.sroa.0.4.vec.extract, 0.000000e+00
  br i1 %2, label %18, label %3

3:                                                ; preds = %1
  %.sroa.0.0.vec.extract = extractelement <2 x float> %0, i64 0
  %4 = fcmp uno float %.sroa.0.0.vec.extract, 0.000000e+00
  br i1 %4, label %18, label %5

5:                                                ; preds = %3
  %6 = tail call float @llvm.fabs.f32(float %.sroa.0.4.vec.extract) #5
  %7 = fcmp oeq float %6, 0x7FF0000000000000
  %8 = tail call float @llvm.fabs.f32(float %.sroa.0.0.vec.extract) #5
  %9 = fcmp oeq float %8, 0x7FF0000000000000
  %or.cond = or i1 %7, %9
  br i1 %or.cond, label %18, label %10

10:                                               ; preds = %5
  %11 = fmul float %.sroa.0.4.vec.extract, %.sroa.0.4.vec.extract
  %12 = fmul <2 x float> %0, %0
  %13 = extractelement <2 x float> %12, i64 0
  %14 = fadd float %11, %13
  %15 = fcmp ogt float %14, 0x3FEFFB15C0000000
  %16 = fcmp olt float %14, 0x3FF0027520000000
  %17 = and i1 %15, %16
  br label %18

18:                                               ; preds = %5, %1, %3, %10
  %.0 = phi i1 [ %17, %10 ], [ false, %3 ], [ false, %1 ], [ false, %5 ]
  ret i1 %.0
}